target datalayout = "e-m:e-p270:32:32-p271:32:32-p272:64:64-i64:64-i128:128-f80:128-n8:16:32:64-S128"
target triple = "x86_64-unknown-linux-gnu"

%"class.google::protobuf::io::CodedInputStream" = type { ptr, ptr, ptr, i32, i32, i32, i8, i8, i8, i32, i32, i32, i32, i32, ptr, ptr }

; Function Attrs: mustprogress nounwind uwtable
define linkonce_odr hidden void @_ZN6google8protobuf2io16CodedInputStream7AdvanceEi(ptr noundef nonnull align 8 dereferenceable(80) %this, i32 noundef %amount) #5 comdat align 2 {
entry:
  %this.addr = alloca ptr, align 8
  %amount.addr = alloca i32, align 4
  store ptr %this, ptr %this.addr, align 8
  store i32 %amount, ptr %amount.addr, align 4
  %this1 = load ptr, ptr %this.addr, align 8
  %0 = load i32, ptr %amount.addr, align 4
  %buffer_ = getelementptr inbounds %"class.google::protobuf::io::CodedInputStream", ptr %this1, i32 0, i32 0
  %1 = load ptr, ptr %buffer_, align 8
  %idx.ext = sext i32 %0 to i64
  %add.ptr = getelementptr inbounds i8, ptr %1, i64 %idx.ext
  store ptr %add.ptr, ptr %buffer_, align 8
  ret void
}

; Function Attrs: mustprogress uwtable
define linkonce_odr hidden noundef zeroext i1 @_ZN6google8protobuf2io16CodedInputStream12ReadVarint32EPj(ptr noundef nonnull align 8 dereferenceable(80) %this, ptr noundef %value) #4 comdat align 2 {
entry:
  %retval = alloca i1, align 1
  %this.addr = alloca ptr, align 8
  %value.addr = alloca ptr, align 8
  %v = alloca i32, align 4
  %result = alloca i64, align 8
  store ptr %this, ptr %this.addr, align 8
  store ptr %value, ptr %value.addr, align 8
  %this1 = load ptr, ptr %this.addr, align 8
  store i32 0, ptr %v, align 4
  %buffer_ = getelementptr inbounds %"class.google::protobuf::io::CodedInputStream", ptr %this1, i32 0, i32 0
  %0 = load ptr, ptr %buffer_, align 8
  %buffer_end_ = getelementptr inbounds %"class.google::protobuf::io::CodedInputStream", ptr %this1, i32 0, i32 1
  %1 = load ptr, ptr %buffer_end_, align 8
  %cmp = icmp ult ptr %0, %1
  br i1 %cmp, label %if.then, label %if.end5

if.then:                                          ; preds = %entry
  %buffer_2 = getelementptr inbounds %"class.google::protobuf::io::CodedInputStream", ptr %this1, i32 0, i32 0
  %2 = load ptr, ptr %buffer_2, align 8
  %3 = load i8, ptr %2, align 1
  %conv = zext i8 %3 to i32
  store i32 %conv, ptr %v, align 4
  %4 = load i32, ptr %v, align 4
  %cmp3 = icmp ult i32 %4, 128
  br i1 %cmp3, label %if.then4, label %if.end

if.then4:                                         ; preds = %if.then
  %5 = load i32, ptr %v, align 4
  %6 = load ptr, ptr %value.addr, align 8
  store i32 %5, ptr %6, align 4
  call void @_ZN6google8protobuf2io16CodedInputStream7AdvanceEi(ptr noundef nonnull align 8 dereferenceable(80) %this1, i32 noundef 1)
  store i1 true, ptr %retval, align 1
  br label %return

if.end:                                           ; preds = %if.then
  br label %if.end5

if.end5:                                          ; preds = %if.end, %entry
  %7 = load i32, ptr %v, align 4
  %call = call noundef i64 @_ZN6google8protobuf2io16CodedInputStream20ReadVarint32FallbackEj(ptr noundef nonnull align 8 dereferenceable(80) %this1, i32 noundef %7)
  store i64 %call, ptr %result, align 8
  %8 = load i64, ptr %result, align 8
  %conv6 = trunc i64 %8 to i32
  %9 = load ptr, ptr %value.addr, align 8
  store i32 %conv6, ptr %9, align 4
  %10 = load i64, ptr %result, align 8
  %cmp7 = icmp sge i64 %10, 0
  store i1 %cmp7, ptr %retval, align 1
  br label %return

return:                                           ; preds = %if.end5, %if.then4
  %11 = load i1, ptr %retval, align 1
  ret i1 %11
}

; Function Attrs: mustprogress uwtable
define noundef zeroext i1 @_ZN6google8protobuf8internal10WireFormat19SkipMessageSetFieldEPNS0_2io16CodedInputStreamEjPNS0_15UnknownFieldSetE(ptr noundef %input, i32 noundef %field_number, ptr noundef %unknown_fields) #4 align 2 {
entry:
  %retval = alloca i1, align 1
  %input.addr = alloca ptr, align 8
  %field_number.addr = alloca i32, align 4
  %unknown_fields.addr = alloca ptr, align 8
  %length = alloca i32, align 4
  store ptr %input, ptr %input.addr, align 8
  store i32 %field_number, ptr %field_number.addr, align 4
  store ptr %unknown_fields, ptr %unknown_fields.addr, align 8
  %0 = load ptr, ptr %input.addr, align 8
  %call = call noundef zeroext i1 @_ZN6google8protobuf2io16CodedInputStream12ReadVarint32EPj(ptr noundef nonnull align 8 dereferenceable(80) %0, ptr noundef %length)
  br i1 %call, label %if.end, label %if.then

if.then:                                          ; preds = %entry
  store i1 false, ptr %retval, align 1
  br label %return

if.end:                                           ; preds = %entry
  %1 = load ptr, ptr %input.addr, align 8
  %2 = load ptr, ptr %unknown_fields.addr, align 8
  %3 = load i32, ptr %field_number.addr, align 4
  %call1 = call noundef ptr @_ZN6google8protobuf15UnknownFieldSet18AddLengthDelimitedB5cxx11Ei(ptr noundef nonnull align 8 dereferenceable(24) %2, i32 noundef %3)
  %4 = load i32, ptr %length, align 4
  %call2 = call noundef zeroext i1 @_ZN6google8protobuf2io16CodedInputStream10ReadStringEPNSt7__cxx1112basic_stringIcSt11char_traitsIcESaIcEEEi(ptr noundef nonnull align 8 dereferenceable(80) %1, ptr noundef %call1, i32 noundef %4)
  store i1 %call2, ptr %retval, align 1
  br label %return

return:                                           ; preds = %if.end, %if.then
  %5 = load i1, ptr %retval, align 1
  ret i1 %5
}