; Function Attrs: mustprogress uwtable
define noundef zeroext i1 @_ZN6google8protobuf8internal10WireFormat19SkipMessageSetFieldEPNS0_2io16CodedInputStreamEjPNS0_15UnknownFieldSetE(ptr noundef %input, i32 noundef %field_number, ptr noundef %unknown_fields) local_unnamed_addr #3 align 2 {
entry:
  %0 = load ptr, ptr %input, align 8
  %buffer_end_.i = getelementptr inbounds nuw i8, ptr %input, i64 8
  %1 = load ptr, ptr %buffer_end_.i, align 8
  %cmp.i = icmp ult ptr %0, %1
  br i1 %cmp.i, label %if.then.i, label %_ZN6google8protobuf2io16CodedInputStream12ReadVarint32EPj.exit

if.then.i:                                        ; preds = %entry
  %2 = load i8, ptr %0, align 1
  %conv.i = zext i8 %2 to i32
  %cmp3.i = icmp sgt i8 %2, -1
  br i1 %cmp3.i, label %_ZN6google8protobuf2io16CodedInputStream12ReadVarint32EPj.exit.thread, label %_ZN6google8protobuf2io16CodedInputStream12ReadVarint32EPj.exit

_ZN6google8protobuf2io16CodedInputStream12ReadVarint32EPj.exit.thread: ; preds = %if.then.i
  %add.ptr.i.i = getelementptr inbounds nuw i8, ptr %0, i64 1
  store ptr %add.ptr.i.i, ptr %input, align 8
  br label %if.end

_ZN6google8protobuf2io16CodedInputStream12ReadVarint32EPj.exit: ; preds = %entry, %if.then.i
  %v.0.i = phi i32 [ %conv.i, %if.then.i ], [ 0, %entry ]
  %call.i = tail call noundef i64 @_ZN6google8protobuf2io16CodedInputStream20ReadVarint32FallbackEj(ptr noundef nonnull align 8 dereferenceable(80) %input, i32 noundef %v.0.i)
  %conv6.i = trunc i64 %call.i to i32
  %cmp7.i = icmp sgt i64 %call.i, -1
  br i1 %cmp7.i, label %if.end, label %return

if.end:                                           ; preds = %_ZN6google8protobuf2io16CodedInputStream12ReadVarint32EPj.exit.thread, %_ZN6google8protobuf2io16CodedInputStream12ReadVarint32EPj.exit
  %length.04 = phi i32 [ %conv.i, %_ZN6google8protobuf2io16CodedInputStream12ReadVarint32EPj.exit.thread ], [ %conv6.i, %_ZN6google8protobuf2io16CodedInputStream12ReadVarint32EPj.exit ]
  %call1 = tail call noundef ptr @_ZN6google8protobuf15UnknownFieldSet18AddLengthDelimitedB5cxx11Ei(ptr noundef nonnull align 8 dereferenceable(24) %unknown_fields, i32 noundef %field_number)
  %call2 = tail call noundef zeroext i1 @_ZN6google8protobuf2io16CodedInputStream10ReadStringEPNSt7__cxx1112basic_stringIcSt11char_traitsIcESaIcEEEi(ptr noundef nonnull align 8 dereferenceable(80) %input, ptr noundef %call1, i32 noundef %length.04)
  br label %return

return:                                           ; preds = %_ZN6google8protobuf2io16CodedInputStream12ReadVarint32EPj.exit, %if.end
  %retval.0 = phi i1 [ %call2, %if.end ], [ false, %_ZN6google8protobuf2io16CodedInputStream12ReadVarint32EPj.exit ]
  ret i1 %retval.0
}